; Function Attrs: nounwind uwtable
define internal fastcc noalias nonnull ptr @get_destination_dir(ptr noundef %0) unnamed_addr #4 {
  %2 = tail call ptr @opendir(ptr noundef %0)
  %3 = icmp eq ptr %2, null
  br i1 %3, label %4, label %5

4:                                                ; preds = %1
  tail call void (i32, i32, ptr, ...) @pg_log_generic(i32 noundef 4, i32 noundef 0, ptr noundef nonnull @.str.79, ptr noundef %0) #12
  tail call void @exit(i32 noundef 1) #15
  unreachable

5:                                                ; preds = %1
  ret ptr %2
}